target datalayout = "e-m:e-p270:32:32-p271:32:32-p272:64:64-i64:64-i128:128-f80:128-n8:16:32:64-S128"
target triple = "x86_64-pc-linux-gnu"

%struct.dt_datetime_t = type { i32, i32, i32, i32, i32, i32, i32 }

@.str.1 = private unnamed_addr constant [82 x i8] c"^\\s*(\\d{4})?(?::(\\d{2}))?(?::(\\d{2}))?(?: (\\d{2}))?(?::(\\d{2}))?(?::(\\d{2}))?\\s*$\00", align 1

; Function Attrs: inlinehint nounwind willreturn memory(read) uwtable
define available_externally i32 @atoi(ptr noundef nonnull %0) #5 {
  %2 = alloca ptr, align 8
  store ptr %0, ptr %2, align 8, !tbaa !60
  %3 = load ptr, ptr %2, align 8, !tbaa !60
  %4 = call i64 @strtol(ptr noundef %3, ptr noundef null, i32 noundef 10) #7
  %5 = trunc i64 %4 to i32
  ret i32 %5
}

; Function Attrs: nounwind uwtable
define i32 @dt_datetime_exif_to_numbers_raw(ptr noundef %0, ptr noundef %1) #0 {
  %3 = alloca i32, align 4
  %4 = alloca ptr, align 8
  %5 = alloca ptr, align 8
  %6 = alloca ptr, align 8
  %7 = alloca ptr, align 8
  %8 = alloca i32, align 4
  %9 = alloca i32, align 4
  store ptr %0, ptr %4, align 8, !tbaa !49
  store ptr %1, ptr %5, align 8, !tbaa !60
  %10 = load ptr, ptr %5, align 8, !tbaa !60
  %11 = icmp ne ptr %10, null
  br i1 %11, label %12, label %68

12:                                               ; preds = %2
  %13 = load ptr, ptr %5, align 8, !tbaa !60
  %14 = load i8, ptr %13, align 1, !tbaa !61
  %15 = sext i8 %14 to i32
  %16 = icmp ne i32 %15, 0
  br i1 %16, label %17, label %68

17:                                               ; preds = %12
  %18 = load ptr, ptr %4, align 8, !tbaa !49
  %19 = icmp ne ptr %18, null
  br i1 %19, label %20, label %68

20:                                               ; preds = %17
  call void @llvm.lifetime.start.p0(i64 8, ptr %6) #7
  call void @llvm.lifetime.start.p0(i64 8, ptr %7) #7
  %21 = call ptr @g_regex_new(ptr noundef @.str.1, i32 noundef 0, i32 noundef 0, ptr noundef null)
  store ptr %21, ptr %7, align 8, !tbaa !63
  %22 = load ptr, ptr %7, align 8, !tbaa !63
  %23 = load ptr, ptr %5, align 8, !tbaa !60
  %24 = call i32 @g_regex_match_full(ptr noundef %22, ptr noundef %23, i64 noundef -1, i32 noundef 0, i32 noundef 0, ptr noundef %6, ptr noundef null)
  call void @llvm.lifetime.start.p0(i64 4, ptr %8) #7
  %25 = load ptr, ptr %6, align 8, !tbaa !65
  %26 = call i32 @g_match_info_get_match_count(ptr noundef %25)
  store i32 %26, ptr %8, align 4, !tbaa !62
  %27 = load i32, ptr %8, align 4, !tbaa !62
  %28 = icmp eq i32 %27, 7
  br i1 %28, label %29, label %62

29:                                               ; preds = %20
  %30 = load ptr, ptr %6, align 8, !tbaa !65
  %31 = call ptr @g_match_info_fetch(ptr noundef %30, i32 noundef 1)
  %32 = call i32 @atoi(ptr noundef %31) #8
  %33 = load ptr, ptr %4, align 8, !tbaa !49
  %34 = getelementptr inbounds nuw %struct.dt_datetime_t, ptr %33, i32 0, i32 0
  store i32 %32, ptr %34, align 4, !tbaa !52
  %35 = load ptr, ptr %6, align 8, !tbaa !65
  %36 = call ptr @g_match_info_fetch(ptr noundef %35, i32 noundef 2)
  %37 = call i32 @atoi(ptr noundef %36) #8
  %38 = load ptr, ptr %4, align 8, !tbaa !49
  %39 = getelementptr inbounds nuw %struct.dt_datetime_t, ptr %38, i32 0, i32 1
  store i32 %37, ptr %39, align 4, !tbaa !54
  %40 = load ptr, ptr %6, align 8, !tbaa !65
  %41 = call ptr @g_match_info_fetch(ptr noundef %40, i32 noundef 3)
  %42 = call i32 @atoi(ptr noundef %41) #8
  %43 = load ptr, ptr %4, align 8, !tbaa !49
  %44 = getelementptr inbounds nuw %struct.dt_datetime_t, ptr %43, i32 0, i32 2
  store i32 %42, ptr %44, align 4, !tbaa !55
  %45 = load ptr, ptr %6, align 8, !tbaa !65
  %46 = call ptr @g_match_info_fetch(ptr noundef %45, i32 noundef 4)
  %47 = call i32 @atoi(ptr noundef %46) #8
  %48 = load ptr, ptr %4, align 8, !tbaa !49
  %49 = getelementptr inbounds nuw %struct.dt_datetime_t, ptr %48, i32 0, i32 3
  store i32 %47, ptr %49, align 4, !tbaa !56
  %50 = load ptr, ptr %6, align 8, !tbaa !65
  %51 = call ptr @g_match_info_fetch(ptr noundef %50, i32 noundef 5)
  %52 = call i32 @atoi(ptr noundef %51) #8
  %53 = load ptr, ptr %4, align 8, !tbaa !49
  %54 = getelementptr inbounds nuw %struct.dt_datetime_t, ptr %53, i32 0, i32 4
  store i32 %52, ptr %54, align 4, !tbaa !57
  %55 = load ptr, ptr %6, align 8, !tbaa !65
  %56 = call ptr @g_match_info_fetch(ptr noundef %55, i32 noundef 6)
  %57 = call i32 @atoi(ptr noundef %56) #8
  %58 = load ptr, ptr %4, align 8, !tbaa !49
  %59 = getelementptr inbounds nuw %struct.dt_datetime_t, ptr %58, i32 0, i32 5
  store i32 %57, ptr %59, align 4, !tbaa !58
  %60 = load ptr, ptr %6, align 8, !tbaa !65
  call void @g_match_info_free(ptr noundef %60)
  %61 = load ptr, ptr %7, align 8, !tbaa !63
  call void @g_regex_unref(ptr noundef %61)
  store i32 1, ptr %3, align 4
  store i32 1, ptr %9, align 4
  br label %65

62:                                               ; preds = %20
  %63 = load ptr, ptr %6, align 8, !tbaa !65
  call void @g_match_info_free(ptr noundef %63)
  %64 = load ptr, ptr %7, align 8, !tbaa !63
  call void @g_regex_unref(ptr noundef %64)
  store i32 0, ptr %9, align 4
  br label %65

65:                                               ; preds = %62, %29
  call void @llvm.lifetime.end.p0(i64 4, ptr %8) #7
  call void @llvm.lifetime.end.p0(i64 8, ptr %7) #7
  call void @llvm.lifetime.end.p0(i64 8, ptr %6) #7
  %66 = load i32, ptr %9, align 4
  switch i32 %66, label %71 [
    i32 0, label %67
    i32 1, label %69
  ]

67:                                               ; preds = %65
  br label %68

68:                                               ; preds = %67, %17, %12, %2
  store i32 0, ptr %3, align 4
  br label %69

69:                                               ; preds = %68, %65
  %70 = load i32, ptr %3, align 4
  ret i32 %70

71:                                               ; preds = %65
  unreachable
}