; Function Attrs: nounwind uwtable
define range(i32 0, 2) i32 @dt_datetime_exif_to_numbers_raw(ptr noundef writeonly %0, ptr noundef %1) local_unnamed_addr #0 {
  %3 = alloca ptr, align 8
  %.not = icmp eq ptr %1, null
  br i1 %.not, label %45, label %4

4:                                                ; preds = %2
  %5 = load i8, ptr %1, align 1, !tbaa !57
  %6 = icmp ne i8 %5, 0
  %7 = icmp ne ptr %0, null
  %or.cond = and i1 %7, %6
  br i1 %or.cond, label %8, label %45

8:                                                ; preds = %4
  call void @llvm.lifetime.start.p0(i64 8, ptr nonnull %3) #7
  %9 = tail call ptr @g_regex_new(ptr noundef nonnull @.str.1, i32 noundef 0, i32 noundef 0, ptr noundef null) #7
  %10 = call i32 @g_regex_match_full(ptr noundef %9, ptr noundef nonnull %1, i64 noundef -1, i32 noundef 0, i32 noundef 0, ptr noundef nonnull %3, ptr noundef null) #7
  %11 = load ptr, ptr %3, align 8, !tbaa !58
  %12 = call i32 @g_match_info_get_match_count(ptr noundef %11) #7
  %13 = icmp eq i32 %12, 7
  %14 = load ptr, ptr %3, align 8, !tbaa !58
  br i1 %13, label %15, label %.sink.split

15:                                               ; preds = %8
  %16 = call ptr @g_match_info_fetch(ptr noundef %14, i32 noundef 1) #7
  %17 = call i64 @strtol(ptr noundef nonnull captures(none) %16, ptr noundef null, i32 noundef 10) #7
  %18 = trunc i64 %17 to i32
  store i32 %18, ptr %0, align 4, !tbaa !49
  %19 = load ptr, ptr %3, align 8, !tbaa !58
  %20 = call ptr @g_match_info_fetch(ptr noundef %19, i32 noundef 2) #7
  %21 = call i64 @strtol(ptr noundef nonnull captures(none) %20, ptr noundef null, i32 noundef 10) #7
  %22 = trunc i64 %21 to i32
  %23 = getelementptr inbounds nuw i8, ptr %0, i64 4
  store i32 %22, ptr %23, align 4, !tbaa !51
  %24 = load ptr, ptr %3, align 8, !tbaa !58
  %25 = call ptr @g_match_info_fetch(ptr noundef %24, i32 noundef 3) #7
  %26 = call i64 @strtol(ptr noundef nonnull captures(none) %25, ptr noundef null, i32 noundef 10) #7
  %27 = trunc i64 %26 to i32
  %28 = getelementptr inbounds nuw i8, ptr %0, i64 8
  store i32 %27, ptr %28, align 4, !tbaa !52
  %29 = load ptr, ptr %3, align 8, !tbaa !58
  %30 = call ptr @g_match_info_fetch(ptr noundef %29, i32 noundef 4) #7
  %31 = call i64 @strtol(ptr noundef nonnull captures(none) %30, ptr noundef null, i32 noundef 10) #7
  %32 = trunc i64 %31 to i32
  %33 = getelementptr inbounds nuw i8, ptr %0, i64 12
  store i32 %32, ptr %33, align 4, !tbaa !53
  %34 = load ptr, ptr %3, align 8, !tbaa !58
  %35 = call ptr @g_match_info_fetch(ptr noundef %34, i32 noundef 5) #7
  %36 = call i64 @strtol(ptr noundef nonnull captures(none) %35, ptr noundef null, i32 noundef 10) #7
  %37 = trunc i64 %36 to i32
  %38 = getelementptr inbounds nuw i8, ptr %0, i64 16
  store i32 %37, ptr %38, align 4, !tbaa !54
  %39 = load ptr, ptr %3, align 8, !tbaa !58
  %40 = call ptr @g_match_info_fetch(ptr noundef %39, i32 noundef 6) #7
  %41 = call i64 @strtol(ptr noundef nonnull captures(none) %40, ptr noundef null, i32 noundef 10) #7
  %42 = trunc i64 %41 to i32
  %43 = getelementptr inbounds nuw i8, ptr %0, i64 20
  store i32 %42, ptr %43, align 4, !tbaa !55
  %44 = load ptr, ptr %3, align 8, !tbaa !58
  br label %.sink.split

.sink.split:                                      ; preds = %8, %15
  %.sink = phi ptr [ %44, %15 ], [ %14, %8 ]
  %.1.ph = phi i32 [ 1, %15 ], [ 0, %8 ]
  call void @g_match_info_free(ptr noundef %.sink) #7
  call void @g_regex_unref(ptr noundef %9) #7
  call void @llvm.lifetime.end.p0(i64 8, ptr nonnull %3) #7
  br label %45

45:                                               ; preds = %.sink.split, %2, %4
  %.1 = phi i32 [ 0, %4 ], [ 0, %2 ], [ %.1.ph, %.sink.split ]
  ret i32 %.1
}